target datalayout = "e-m:e-p270:32:32-p271:32:32-p272:64:64-i64:64-i128:128-f80:128-n8:16:32:64-S128"
target triple = "x86_64-pc-linux-gnu"

%struct.buf_t = type { i32, ptr, i32, i32, i8, i8 }
%struct.identity_t = type { i32, i32, ptr, ptr, ptr, ptr, i32, ptr, ptr, i8 }
%struct.sbcast_cred_arg_t = type { i32, i32, i32, ptr, i64, ptr }
%struct.sbcast_cred = type { i64, %struct.sbcast_cred_arg_t, ptr, ptr, i8 }

@.str.1 = private unnamed_addr constant [14 x i8] c"cred_common.c\00", align 1
@__func__.sbcast_cred_unpack = private unnamed_addr constant [19 x i8] c"sbcast_cred_unpack\00", align 1
@.str.2 = private unnamed_addr constant [35 x i8] c"%s: %s: %s: need to fetch identity\00", align 1
@plugin_type = external constant [0 x i8], align 1

; Function Attrs: nounwind uwtable
define dso_local ptr @sbcast_cred_unpack(ptr noundef %0, ptr noundef %1, i16 noundef zeroext %2) #0 {
  %4 = alloca ptr, align 8
  %5 = alloca ptr, align 8
  %6 = alloca ptr, align 8
  %7 = alloca i16, align 2
  %8 = alloca ptr, align 8
  %9 = alloca i32, align 4
  %10 = alloca i32, align 4
  %11 = alloca i32, align 4
  %12 = alloca i32, align 4
  %13 = alloca i32, align 4
  %14 = alloca i32, align 4
  %15 = alloca i32, align 4
  store ptr %0, ptr %5, align 8
  store ptr %1, ptr %6, align 8
  store i16 %2, ptr %7, align 2
  call void @llvm.lifetime.start.p0(i64 8, ptr %8) #6
  %16 = call ptr @slurm_xcalloc(i64 noundef 1, i64 noundef 72, i1 noundef zeroext true, i1 noundef zeroext false, ptr noundef @.str.1, i32 noundef 609, ptr noundef @__func__.sbcast_cred_unpack)
  store ptr %16, ptr %8, align 8
  call void @llvm.lifetime.start.p0(i64 4, ptr %9) #6
  %17 = load ptr, ptr %5, align 8
  %18 = getelementptr inbounds nuw %struct.buf_t, ptr %17, i32 0, i32 3
  %19 = load i32, ptr %18, align 4
  store i32 %19, ptr %9, align 4
  %20 = load i16, ptr %7, align 2
  %21 = zext i16 %20 to i32
  %22 = icmp sge i32 %21, 10240
  br i1 %22, label %23, label %165

23:                                               ; preds = %3
  %24 = load ptr, ptr %8, align 8
  %25 = getelementptr inbounds nuw %struct.sbcast_cred, ptr %24, i32 0, i32 1
  %26 = getelementptr inbounds nuw %struct.sbcast_cred_arg_t, ptr %25, i32 0, i32 3
  %27 = load ptr, ptr %5, align 8
  %28 = load i16, ptr %7, align 2
  %29 = call i32 @unpack_identity(ptr noundef %26, ptr noundef %27, i16 noundef zeroext %28)
  %30 = icmp ne i32 %29, 0
  br i1 %30, label %31, label %32

31:                                               ; preds = %23
  br label %227

32:                                               ; preds = %23
  br label %33

33:                                               ; preds = %32
  %34 = load ptr, ptr %8, align 8
  %35 = getelementptr inbounds nuw %struct.sbcast_cred, ptr %34, i32 0, i32 0
  %36 = load ptr, ptr %5, align 8
  %37 = call i32 @unpack_time(ptr noundef %35, ptr noundef %36)
  %38 = icmp ne i32 %37, 0
  br i1 %38, label %39, label %40

39:                                               ; preds = %33
  br label %227

40:                                               ; preds = %33
  br label %41

41:                                               ; preds = %40
  br label %42

42:                                               ; preds = %41
  br label %43

43:                                               ; preds = %42
  %44 = load ptr, ptr %8, align 8
  %45 = getelementptr inbounds nuw %struct.sbcast_cred, ptr %44, i32 0, i32 1
  %46 = getelementptr inbounds nuw %struct.sbcast_cred_arg_t, ptr %45, i32 0, i32 4
  %47 = load ptr, ptr %5, align 8
  %48 = call i32 @unpack_time(ptr noundef %46, ptr noundef %47)
  %49 = icmp ne i32 %48, 0
  br i1 %49, label %50, label %51

50:                                               ; preds = %43
  br label %227

51:                                               ; preds = %43
  br label %52

52:                                               ; preds = %51
  br label %53

53:                                               ; preds = %52
  br label %54

54:                                               ; preds = %53
  %55 = load ptr, ptr %8, align 8
  %56 = getelementptr inbounds nuw %struct.sbcast_cred, ptr %55, i32 0, i32 1
  %57 = getelementptr inbounds nuw %struct.sbcast_cred_arg_t, ptr %56, i32 0, i32 0
  %58 = load ptr, ptr %5, align 8
  %59 = call i32 @unpack32(ptr noundef %57, ptr noundef %58)
  %60 = icmp ne i32 %59, 0
  br i1 %60, label %61, label %62

61:                                               ; preds = %54
  br label %227

62:                                               ; preds = %54
  br label %63

63:                                               ; preds = %62
  br label %64

64:                                               ; preds = %63
  br label %65

65:                                               ; preds = %64
  %66 = load ptr, ptr %8, align 8
  %67 = getelementptr inbounds nuw %struct.sbcast_cred, ptr %66, i32 0, i32 1
  %68 = getelementptr inbounds nuw %struct.sbcast_cred_arg_t, ptr %67, i32 0, i32 1
  %69 = load ptr, ptr %5, align 8
  %70 = call i32 @unpack32(ptr noundef %68, ptr noundef %69)
  %71 = icmp ne i32 %70, 0
  br i1 %71, label %72, label %73

72:                                               ; preds = %65
  br label %227

73:                                               ; preds = %65
  br label %74

74:                                               ; preds = %73
  br label %75

75:                                               ; preds = %74
  br label %76

76:                                               ; preds = %75
  %77 = load ptr, ptr %8, align 8
  %78 = getelementptr inbounds nuw %struct.sbcast_cred, ptr %77, i32 0, i32 1
  %79 = getelementptr inbounds nuw %struct.sbcast_cred_arg_t, ptr %78, i32 0, i32 2
  %80 = load ptr, ptr %5, align 8
  %81 = call i32 @unpack32(ptr noundef %79, ptr noundef %80)
  %82 = icmp ne i32 %81, 0
  br i1 %82, label %83, label %84

83:                                               ; preds = %76
  br label %227

84:                                               ; preds = %76
  br label %85

85:                                               ; preds = %84
  br label %86

86:                                               ; preds = %85
  br label %87

87:                                               ; preds = %86
  call void @llvm.lifetime.start.p0(i64 4, ptr %10) #6
  %88 = load ptr, ptr %8, align 8
  %89 = getelementptr inbounds nuw %struct.sbcast_cred, ptr %88, i32 0, i32 1
  %90 = getelementptr inbounds nuw %struct.sbcast_cred_arg_t, ptr %89, i32 0, i32 5
  %91 = load ptr, ptr %5, align 8
  %92 = call i32 @unpackstr_xmalloc_chooser(ptr noundef %90, ptr noundef %10, ptr noundef %91)
  %93 = icmp ne i32 %92, 0
  br i1 %93, label %94, label %95

94:                                               ; preds = %87
  store i32 2, ptr %11, align 4
  br label %96

95:                                               ; preds = %87
  store i32 0, ptr %11, align 4
  br label %96

96:                                               ; preds = %94, %95
  call void @llvm.lifetime.end.p0(i64 4, ptr %10) #6
  %97 = load i32, ptr %11, align 4
  switch i32 %97, label %229 [
    i32 0, label %98
    i32 2, label %227
  ]

98:                                               ; preds = %96
  br label %99

99:                                               ; preds = %98
  br label %100

100:                                              ; preds = %99
  %101 = load ptr, ptr %8, align 8
  %102 = getelementptr inbounds nuw %struct.sbcast_cred, ptr %101, i32 0, i32 1
  %103 = getelementptr inbounds nuw %struct.sbcast_cred_arg_t, ptr %102, i32 0, i32 3
  %104 = load ptr, ptr %103, align 8
  %105 = getelementptr inbounds nuw %struct.identity_t, ptr %104, i32 0, i32 2
  %106 = load ptr, ptr %105, align 8
  %107 = icmp ne ptr %106, null
  br i1 %107, label %164, label %108

108:                                              ; preds = %100
  call void @llvm.lifetime.start.p0(i64 4, ptr %12) #6
  %109 = load ptr, ptr %8, align 8
  %110 = getelementptr inbounds nuw %struct.sbcast_cred, ptr %109, i32 0, i32 1
  %111 = getelementptr inbounds nuw %struct.sbcast_cred_arg_t, ptr %110, i32 0, i32 3
  %112 = load ptr, ptr %111, align 8
  %113 = getelementptr inbounds nuw %struct.identity_t, ptr %112, i32 0, i32 0
  %114 = load i32, ptr %113, align 8
  store i32 %114, ptr %12, align 4
  call void @llvm.lifetime.start.p0(i64 4, ptr %13) #6
  %115 = load ptr, ptr %8, align 8
  %116 = getelementptr inbounds nuw %struct.sbcast_cred, ptr %115, i32 0, i32 1
  %117 = getelementptr inbounds nuw %struct.sbcast_cred_arg_t, ptr %116, i32 0, i32 3
  %118 = load ptr, ptr %117, align 8
  %119 = getelementptr inbounds nuw %struct.identity_t, ptr %118, i32 0, i32 1
  %120 = load i32, ptr %119, align 4
  store i32 %120, ptr %13, align 4
  br label %121

121:                                              ; preds = %108
  br label %122

122:                                              ; preds = %121
  %123 = call i32 @get_log_level()
  %124 = icmp sge i32 %123, 6
  br i1 %124, label %125, label %126

125:                                              ; preds = %122
  call void (i32, ptr, ...) @log_var(i32 noundef 6, ptr noundef @.str.2, ptr noundef @plugin_type, ptr noundef @__func__.sbcast_cred_unpack, ptr noundef @__func__.sbcast_cred_unpack)
  br label %126

126:                                              ; preds = %125, %122
  br label %127

127:                                              ; preds = %126
  br label %128

128:                                              ; preds = %127
  br label %129

129:                                              ; preds = %128
  br label %130

130:                                              ; preds = %129
  br label %131

131:                                              ; preds = %130
  %132 = load ptr, ptr %8, align 8
  %133 = getelementptr inbounds nuw %struct.sbcast_cred, ptr %132, i32 0, i32 1
  %134 = getelementptr inbounds nuw %struct.sbcast_cred_arg_t, ptr %133, i32 0, i32 3
  %135 = load ptr, ptr %134, align 8
  %136 = icmp ne ptr %135, null
  br i1 %136, label %137, label %142

137:                                              ; preds = %131
  %138 = load ptr, ptr %8, align 8
  %139 = getelementptr inbounds nuw %struct.sbcast_cred, ptr %138, i32 0, i32 1
  %140 = getelementptr inbounds nuw %struct.sbcast_cred_arg_t, ptr %139, i32 0, i32 3
  %141 = load ptr, ptr %140, align 8
  call void @destroy_identity(ptr noundef %141)
  br label %142

142:                                              ; preds = %137, %131
  %143 = load ptr, ptr %8, align 8
  %144 = getelementptr inbounds nuw %struct.sbcast_cred, ptr %143, i32 0, i32 1
  %145 = getelementptr inbounds nuw %struct.sbcast_cred_arg_t, ptr %144, i32 0, i32 3
  store ptr null, ptr %145, align 8
  br label %146

146:                                              ; preds = %142
  br label %147

147:                                              ; preds = %146
  %148 = load i32, ptr %12, align 4
  %149 = load i32, ptr %13, align 4
  %150 = call ptr @fetch_identity(i32 noundef %148, i32 noundef %149, i1 noundef zeroext false)
  %151 = load ptr, ptr %8, align 8
  %152 = getelementptr inbounds nuw %struct.sbcast_cred, ptr %151, i32 0, i32 1
  %153 = getelementptr inbounds nuw %struct.sbcast_cred_arg_t, ptr %152, i32 0, i32 3
  store ptr %150, ptr %153, align 8
  %154 = load ptr, ptr %8, align 8
  %155 = getelementptr inbounds nuw %struct.sbcast_cred, ptr %154, i32 0, i32 1
  %156 = getelementptr inbounds nuw %struct.sbcast_cred_arg_t, ptr %155, i32 0, i32 3
  %157 = load ptr, ptr %156, align 8
  %158 = icmp ne ptr %157, null
  br i1 %158, label %160, label %159

159:                                              ; preds = %147
  store i32 2, ptr %11, align 4
  br label %161

160:                                              ; preds = %147
  store i32 0, ptr %11, align 4
  br label %161

161:                                              ; preds = %159, %160
  call void @llvm.lifetime.end.p0(i64 4, ptr %13) #6
  call void @llvm.lifetime.end.p0(i64 4, ptr %12) #6
  %162 = load i32, ptr %11, align 4
  switch i32 %162, label %229 [
    i32 0, label %163
    i32 2, label %227
  ]

163:                                              ; preds = %161
  br label %164

164:                                              ; preds = %163, %100
  br label %166

165:                                              ; preds = %3
  br label %227

166:                                              ; preds = %164
  %167 = load ptr, ptr %8, align 8
  %168 = getelementptr inbounds nuw %struct.sbcast_cred, ptr %167, i32 0, i32 1
  %169 = getelementptr inbounds nuw %struct.sbcast_cred_arg_t, ptr %168, i32 0, i32 3
  %170 = load ptr, ptr %169, align 8
  call void @identity_debug2(ptr noundef %170, ptr noundef @__func__.sbcast_cred_unpack)
  %171 = load ptr, ptr %5, align 8
  %172 = getelementptr inbounds nuw %struct.buf_t, ptr %171, i32 0, i32 3
  %173 = load i32, ptr %172, align 4
  %174 = load i32, ptr %9, align 4
  %175 = sub i32 %173, %174
  %176 = load ptr, ptr %6, align 8
  store i32 %175, ptr %176, align 4
  br label %177

177:                                              ; preds = %166
  call void @llvm.lifetime.start.p0(i64 4, ptr %14) #6
  %178 = load ptr, ptr %8, align 8
  %179 = getelementptr inbounds nuw %struct.sbcast_cred, ptr %178, i32 0, i32 3
  %180 = load ptr, ptr %5, align 8
  %181 = call i32 @unpackstr_xmalloc_chooser(ptr noundef %179, ptr noundef %14, ptr noundef %180)
  %182 = icmp ne i32 %181, 0
  br i1 %182, label %183, label %184

183:                                              ; preds = %177
  store i32 2, ptr %11, align 4
  br label %185

184:                                              ; preds = %177
  store i32 0, ptr %11, align 4
  br label %185

185:                                              ; preds = %183, %184
  call void @llvm.lifetime.end.p0(i64 4, ptr %14) #6
  %186 = load i32, ptr %11, align 4
  switch i32 %186, label %229 [
    i32 0, label %187
    i32 2, label %227
  ]

187:                                              ; preds = %185
  br label %188

188:                                              ; preds = %187
  br label %189

189:                                              ; preds = %188
  %190 = load ptr, ptr %8, align 8
  %191 = getelementptr inbounds nuw %struct.sbcast_cred, ptr %190, i32 0, i32 3
  %192 = load ptr, ptr %191, align 8
  %193 = icmp ne ptr %192, null
  br i1 %193, label %195, label %194

194:                                              ; preds = %189
  br label %227

195:                                              ; preds = %189
  %196 = call zeroext i1 @running_in_slurmd()
  br i1 %196, label %225, label %197

197:                                              ; preds = %195
  call void @llvm.lifetime.start.p0(i64 4, ptr %15) #6
  %198 = load ptr, ptr %5, align 8
  %199 = getelementptr inbounds nuw %struct.buf_t, ptr %198, i32 0, i32 3
  %200 = load i32, ptr %199, align 4
  %201 = load i32, ptr %9, align 4
  %202 = sub i32 %200, %201
  store i32 %202, ptr %15, align 4
  %203 = load i32, ptr %15, align 4
  %204 = call ptr @init_buf(i32 noundef %203)
  %205 = load ptr, ptr %8, align 8
  %206 = getelementptr inbounds nuw %struct.sbcast_cred, ptr %205, i32 0, i32 2
  store ptr %204, ptr %206, align 8
  %207 = load ptr, ptr %8, align 8
  %208 = getelementptr inbounds nuw %struct.sbcast_cred, ptr %207, i32 0, i32 2
  %209 = load ptr, ptr %208, align 8
  %210 = getelementptr inbounds nuw %struct.buf_t, ptr %209, i32 0, i32 1
  %211 = load ptr, ptr %210, align 8
  %212 = load ptr, ptr %5, align 8
  %213 = getelementptr inbounds nuw %struct.buf_t, ptr %212, i32 0, i32 1
  %214 = load ptr, ptr %213, align 8
  %215 = load i32, ptr %9, align 4
  %216 = zext i32 %215 to i64
  %217 = getelementptr inbounds nuw i8, ptr %214, i64 %216
  %218 = load i32, ptr %15, align 4
  %219 = zext i32 %218 to i64
  call void @llvm.memcpy.p0.p0.i64(ptr align 1 %211, ptr align 1 %217, i64 %219, i1 false)
  %220 = load i32, ptr %15, align 4
  %221 = load ptr, ptr %8, align 8
  %222 = getelementptr inbounds nuw %struct.sbcast_cred, ptr %221, i32 0, i32 2
  %223 = load ptr, ptr %222, align 8
  %224 = getelementptr inbounds nuw %struct.buf_t, ptr %223, i32 0, i32 3
  store i32 %220, ptr %224, align 4
  call void @llvm.lifetime.end.p0(i64 4, ptr %15) #6
  br label %225

225:                                              ; preds = %197, %195
  %226 = load ptr, ptr %8, align 8
  store ptr %226, ptr %4, align 8
  store i32 1, ptr %11, align 4
  br label %229

227:                                              ; preds = %185, %161, %96, %194, %165, %83, %72, %61, %50, %39, %31
  %228 = load ptr, ptr %8, align 8
  call void @delete_sbcast_cred(ptr noundef %228)
  store ptr null, ptr %4, align 8
  store i32 1, ptr %11, align 4
  br label %229

229:                                              ; preds = %227, %225, %185, %161, %96
  call void @llvm.lifetime.end.p0(i64 4, ptr %9) #6
  call void @llvm.lifetime.end.p0(i64 8, ptr %8) #6
  %230 = load ptr, ptr %4, align 8
  ret ptr %230
}