; Function Attrs: nounwind uwtable
define dso_local ptr @sbcast_cred_unpack(ptr noundef %0, ptr noundef writeonly captures(none) %1, i16 noundef zeroext %2) local_unnamed_addr #0 {
  %4 = alloca i32, align 4
  %5 = alloca i32, align 4
  %6 = tail call ptr @slurm_xcalloc(i64 noundef 1, i64 noundef 72, i1 noundef zeroext true, i1 noundef zeroext false, ptr noundef nonnull @.str.1, i32 noundef 609, ptr noundef nonnull @__func__.sbcast_cred_unpack) #6
  %7 = getelementptr inbounds nuw i8, ptr %0, i64 20
  %8 = load i32, ptr %7, align 4
  %9 = icmp ugt i16 %2, 10239
  br i1 %9, label %10, label %70

10:                                               ; preds = %3
  %11 = getelementptr inbounds nuw i8, ptr %6, i64 8
  %12 = getelementptr inbounds nuw i8, ptr %6, i64 24
  %13 = tail call i32 @unpack_identity(ptr noundef nonnull %12, ptr noundef nonnull %0, i16 noundef zeroext %2) #6
  %.not = icmp eq i32 %13, 0
  br i1 %.not, label %14, label %70

14:                                               ; preds = %10
  %15 = tail call i32 @unpack_time(ptr noundef nonnull %6, ptr noundef nonnull %0) #6
  %.not51 = icmp eq i32 %15, 0
  br i1 %.not51, label %16, label %70

16:                                               ; preds = %14
  %17 = getelementptr inbounds nuw i8, ptr %6, i64 32
  %18 = tail call i32 @unpack_time(ptr noundef nonnull %17, ptr noundef nonnull %0) #6
  %.not52 = icmp eq i32 %18, 0
  br i1 %.not52, label %19, label %70

19:                                               ; preds = %16
  %20 = tail call i32 @unpack32(ptr noundef nonnull %11, ptr noundef nonnull %0) #6
  %.not53 = icmp eq i32 %20, 0
  br i1 %.not53, label %21, label %70

21:                                               ; preds = %19
  %22 = getelementptr inbounds nuw i8, ptr %6, i64 12
  %23 = tail call i32 @unpack32(ptr noundef nonnull %22, ptr noundef nonnull %0) #6
  %.not54 = icmp eq i32 %23, 0
  br i1 %.not54, label %24, label %70

24:                                               ; preds = %21
  %25 = getelementptr inbounds nuw i8, ptr %6, i64 16
  %26 = tail call i32 @unpack32(ptr noundef nonnull %25, ptr noundef nonnull %0) #6
  %.not55 = icmp eq i32 %26, 0
  br i1 %.not55, label %27, label %70

27:                                               ; preds = %24
  call void @llvm.lifetime.start.p0(i64 4, ptr nonnull %4) #6
  %28 = getelementptr inbounds nuw i8, ptr %6, i64 40
  %29 = call i32 @unpackstr_xmalloc_chooser(ptr noundef nonnull %28, ptr noundef nonnull %4, ptr noundef nonnull %0) #6
  %.not56 = icmp eq i32 %29, 0
  call void @llvm.lifetime.end.p0(i64 4, ptr nonnull %4) #6
  br i1 %.not56, label %30, label %70

30:                                               ; preds = %27
  %31 = load ptr, ptr %12, align 8
  %32 = getelementptr inbounds nuw i8, ptr %31, i64 8
  %33 = load ptr, ptr %32, align 8
  %.not57 = icmp eq ptr %33, null
  br i1 %.not57, label %34, label %46

34:                                               ; preds = %30
  %35 = load i32, ptr %31, align 8
  %36 = getelementptr inbounds nuw i8, ptr %31, i64 4
  %37 = load i32, ptr %36, align 4
  %38 = call i32 @get_log_level() #6
  %39 = icmp sgt i32 %38, 5
  br i1 %39, label %40, label %41

40:                                               ; preds = %34
  call void (i32, ptr, ...) @log_var(i32 noundef 6, ptr noundef nonnull @.str.2, ptr noundef nonnull @plugin_type, ptr noundef nonnull @__func__.sbcast_cred_unpack, ptr noundef nonnull @__func__.sbcast_cred_unpack) #6
  br label %41

41:                                               ; preds = %34, %40
  %42 = load ptr, ptr %12, align 8
  %.not58 = icmp eq ptr %42, null
  br i1 %.not58, label %44, label %43

43:                                               ; preds = %41
  call void @destroy_identity(ptr noundef nonnull %42) #6
  br label %44

44:                                               ; preds = %43, %41
  store ptr null, ptr %12, align 8
  %45 = call ptr @fetch_identity(i32 noundef %35, i32 noundef %37, i1 noundef zeroext false) #6
  store ptr %45, ptr %12, align 8
  %.not59 = icmp eq ptr %45, null
  br i1 %.not59, label %70, label %46

46:                                               ; preds = %44, %30
  %47 = phi ptr [ %45, %44 ], [ %31, %30 ]
  call void @identity_debug2(ptr noundef nonnull %47, ptr noundef nonnull @__func__.sbcast_cred_unpack) #6
  %48 = load i32, ptr %7, align 4
  %49 = sub i32 %48, %8
  store i32 %49, ptr %1, align 4
  call void @llvm.lifetime.start.p0(i64 4, ptr nonnull %5) #6
  %50 = getelementptr inbounds nuw i8, ptr %6, i64 56
  %51 = call i32 @unpackstr_xmalloc_chooser(ptr noundef nonnull %50, ptr noundef nonnull %5, ptr noundef nonnull %0) #6
  %.not60 = icmp eq i32 %51, 0
  call void @llvm.lifetime.end.p0(i64 4, ptr nonnull %5) #6
  br i1 %.not60, label %52, label %70

52:                                               ; preds = %46
  %53 = load ptr, ptr %50, align 8
  %.not61 = icmp eq ptr %53, null
  br i1 %.not61, label %70, label %54

54:                                               ; preds = %52
  %55 = call zeroext i1 @running_in_slurmd() #6
  br i1 %55, label %71, label %56

56:                                               ; preds = %54
  %57 = load i32, ptr %7, align 4
  %58 = sub i32 %57, %8
  %59 = call ptr @init_buf(i32 noundef %58) #6
  %60 = getelementptr inbounds nuw i8, ptr %6, i64 48
  store ptr %59, ptr %60, align 8
  %61 = getelementptr inbounds nuw i8, ptr %59, i64 8
  %62 = load ptr, ptr %61, align 8
  %63 = getelementptr inbounds nuw i8, ptr %0, i64 8
  %64 = load ptr, ptr %63, align 8
  %65 = zext i32 %8 to i64
  %66 = getelementptr inbounds nuw i8, ptr %64, i64 %65
  %67 = zext i32 %58 to i64
  call void @llvm.memcpy.p0.p0.i64(ptr align 1 %62, ptr align 1 %66, i64 %67, i1 false)
  %68 = load ptr, ptr %60, align 8
  %69 = getelementptr inbounds nuw i8, ptr %68, i64 20
  store i32 %58, ptr %69, align 4
  br label %71

70:                                               ; preds = %46, %44, %27, %52, %3, %24, %21, %19, %16, %14, %10
  call void @delete_sbcast_cred(ptr noundef %6) #6
  br label %71

71:                                               ; preds = %54, %56, %70
  %.0 = phi ptr [ null, %70 ], [ %6, %56 ], [ %6, %54 ]
  ret ptr %.0
}